; Function Attrs: mustprogress nounwind uwtable
define internal void @_ZN12_GLOBAL__N_122DumpModuleInfoListener17ReadModuleMapFileEN4llvm9StringRefE(ptr nocapture noundef nonnull readonly align 8 dereferenceable(16) %0, ptr %1, i64 %2) unnamed_addr #0 align 2 {
  %4 = getelementptr inbounds nuw i8, ptr %0, i64 8
  %5 = load ptr, ptr %4, align 8
  %6 = tail call noundef nonnull align 8 dereferenceable(48) ptr @_ZN4llvm11raw_ostream6indentEj(ptr noundef nonnull align 8 dereferenceable(48) %5, i32 noundef 2) #21
  %7 = getelementptr inbounds nuw i8, ptr %6, i64 24
  %8 = load ptr, ptr %7, align 8
  %9 = getelementptr inbounds nuw i8, ptr %6, i64 32
  %10 = load ptr, ptr %9, align 8
  %11 = ptrtoint ptr %8 to i64
  %12 = ptrtoint ptr %10 to i64
  %13 = sub i64 %11, %12
  %14 = icmp ult i64 %13, 17
  br i1 %14, label %15, label %17

15:                                               ; preds = %3
  %16 = tail call noundef nonnull align 8 dereferenceable(48) ptr @_ZN4llvm11raw_ostream5writeEPKcm(ptr noundef nonnull align 8 dereferenceable(48) %6, ptr noundef nonnull @.str.247, i64 noundef 17) #21
  %.phi.trans.insert = getelementptr inbounds nuw i8, ptr %16, i64 32
  %.pre = load ptr, ptr %.phi.trans.insert, align 8
  br label %_ZN4llvm11raw_ostreamlsEPKc.exit

17:                                               ; preds = %3
  tail call void @llvm.memcpy.p0.p0.i64(ptr noundef nonnull align 1 dereferenceable(17) %10, ptr noundef nonnull align 1 dereferenceable(17) @.str.247, i64 17, i1 false)
  %18 = load ptr, ptr %9, align 8
  %19 = getelementptr inbounds i8, ptr %18, i64 17
  store ptr %19, ptr %9, align 8
  br label %_ZN4llvm11raw_ostreamlsEPKc.exit

_ZN4llvm11raw_ostreamlsEPKc.exit:                 ; preds = %15, %17
  %20 = phi ptr [ %.pre, %15 ], [ %19, %17 ]
  %.0.i.i = phi ptr [ %16, %15 ], [ %6, %17 ]
  %21 = getelementptr inbounds nuw i8, ptr %.0.i.i, i64 24
  %22 = load ptr, ptr %21, align 8
  %23 = getelementptr inbounds nuw i8, ptr %.0.i.i, i64 32
  %24 = ptrtoint ptr %22 to i64
  %25 = ptrtoint ptr %20 to i64
  %26 = sub i64 %24, %25
  %27 = icmp ugt i64 %2, %26
  br i1 %27, label %28, label %30

28:                                               ; preds = %_ZN4llvm11raw_ostreamlsEPKc.exit
  %29 = tail call noundef nonnull align 8 dereferenceable(48) ptr @_ZN4llvm11raw_ostream5writeEPKcm(ptr noundef nonnull align 8 dereferenceable(48) %.0.i.i, ptr noundef %1, i64 noundef %2) #21
  %.phi.trans.insert6 = getelementptr inbounds nuw i8, ptr %29, i64 32
  %.pre7 = load ptr, ptr %.phi.trans.insert6, align 8
  br label %_ZN4llvm11raw_ostreamlsENS_9StringRefE.exit

30:                                               ; preds = %_ZN4llvm11raw_ostreamlsEPKc.exit
  %.not.i = icmp eq i64 %2, 0
  br i1 %.not.i, label %_ZN4llvm11raw_ostreamlsENS_9StringRefE.exit, label %31

31:                                               ; preds = %30
  tail call void @llvm.memcpy.p0.p0.i64(ptr align 1 %20, ptr align 1 %1, i64 %2, i1 false)
  %32 = load ptr, ptr %23, align 8
  %33 = getelementptr inbounds i8, ptr %32, i64 %2
  store ptr %33, ptr %23, align 8
  br label %_ZN4llvm11raw_ostreamlsENS_9StringRefE.exit

_ZN4llvm11raw_ostreamlsENS_9StringRefE.exit:      ; preds = %28, %30, %31
  %34 = phi ptr [ %.pre7, %28 ], [ %33, %31 ], [ %20, %30 ]
  %.0.i = phi ptr [ %29, %28 ], [ %.0.i.i, %31 ], [ %.0.i.i, %30 ]
  %35 = getelementptr inbounds nuw i8, ptr %.0.i, i64 24
  %36 = load ptr, ptr %35, align 8
  %37 = icmp eq ptr %36, %34
  br i1 %37, label %38, label %40

38:                                               ; preds = %_ZN4llvm11raw_ostreamlsENS_9StringRefE.exit
  %39 = tail call noundef nonnull align 8 dereferenceable(48) ptr @_ZN4llvm11raw_ostream5writeEPKcm(ptr noundef nonnull align 8 dereferenceable(48) %.0.i, ptr noundef nonnull @.str.9, i64 noundef 1) #21
  br label %_ZN4llvm11raw_ostreamlsEPKc.exit5

40:                                               ; preds = %_ZN4llvm11raw_ostreamlsENS_9StringRefE.exit
  %41 = getelementptr inbounds nuw i8, ptr %.0.i, i64 32
  store i8 10, ptr %34, align 1
  %42 = load ptr, ptr %41, align 8
  %43 = getelementptr inbounds i8, ptr %42, i64 1
  store ptr %43, ptr %41, align 8
  br label %_ZN4llvm11raw_ostreamlsEPKc.exit5

_ZN4llvm11raw_ostreamlsEPKc.exit5:                ; preds = %38, %40
  ret void
}